; Function Attrs: nounwind uwtable
define ptr @l___private_Lean_Elab_Binders_0__Lean_Elab_Term_expandBinderType(ptr noundef %0, ptr noundef %1) local_unnamed_addr #1 {
  %3 = tail call ptr @l_Lean_Syntax_getNumArgs(ptr noundef %1) #6
  %4 = ptrtoint ptr %3 to i64
  %5 = and i64 %4, 1
  %.not = icmp eq i64 %5, 0
  br i1 %.not, label %7, label %lean_nat_eq.exit.thread, !prof !12

lean_nat_eq.exit.thread:                          ; preds = %2
  %6 = icmp eq ptr %3, inttoptr (i64 1 to ptr)
  br i1 %6, label %17, label %15

7:                                                ; preds = %2
  %8 = tail call zeroext i1 @lean_nat_big_eq(ptr noundef %3, ptr noundef nonnull inttoptr (i64 1 to ptr)) #6
  %9 = load i32, ptr %3, align 4, !tbaa !8
  %10 = icmp sgt i32 %9, 1
  br i1 %10, label %11, label %13, !prof !11

11:                                               ; preds = %7
  %12 = add nsw i32 %9, -1
  store i32 %12, ptr %3, align 4, !tbaa !8
  br i1 %8, label %17, label %15

13:                                               ; preds = %7
  %.not.i = icmp eq i32 %9, 0
  br i1 %.not.i, label %lean_dec.exit, label %14

14:                                               ; preds = %13
  tail call void @lean_dec_ref_cold(ptr noundef nonnull %3) #6
  br i1 %8, label %17, label %15

lean_dec.exit:                                    ; preds = %13
  br i1 %8, label %17, label %15

15:                                               ; preds = %14, %11, %lean_nat_eq.exit.thread, %lean_dec.exit
  %16 = tail call ptr @l_Lean_Syntax_getArg(ptr noundef %1, ptr noundef nonnull inttoptr (i64 3 to ptr)) #6
  br label %19

17:                                               ; preds = %14, %11, %lean_nat_eq.exit.thread, %lean_dec.exit
  %18 = tail call ptr @l_Lean_mkHole(ptr noundef %0, i8 noundef zeroext 0) #6
  br label %19

19:                                               ; preds = %17, %15
  %.0 = phi ptr [ %16, %15 ], [ %18, %17 ]
  ret ptr %.0
}